(dp1
S'session'
p2
(dp3
S'_accessed_time'
p4
F1475470684.464
sS'user'
p5
(dp6
Vfamily_name
p7
VRajaseshan
p8
sS'querys'
p9
ccollections
Counter
p10
((dp11
Vtest
p12
I1
sVmulti
p13
I1
stRp14
sVname
p15
VAbhinav Rajaseshan
p16
sVpicture
p17
Vhttps://lh3.googleusercontent.com/-CcauAr100AM/AAAAAAAAAAI/AAAAAAAAB4Y/x9ayAius0XQ/photo.jpg
p18
sVgender
p19
Vmale
p20
sVemail
p21
Vabhinavrajaseshan@gmail.com
p22
sVlink
p23
Vhttps://plus.google.com/110481109288420860126
p24
sVgiven_name
p25
VAbhinav
p26
sS'query'
p27
S'Top Keywords'
p28
sVid
p29
V110481109288420860126
p30
sVverified_email
p31
I01
ssS'_creation_time'
p32
F1475466731.427
ss.