(dp1
S'session'
p2
(dp3
S'_accessed_time'
p4
F1475799626.4860001
sS'user'
p5
(dp6
Vfamily_name
p7
VRajaseshan
p8
sS'querys'
p9
ccollections
Counter
p10
((dp11
Vkeyqoes
p12
I1
sVonly
p13
I1
sVtop
p14
I1
sV3
I1
stRp15
sVname
p16
VAbhinav Rajaseshan
p17
sVpicture
p18
Vhttps://lh3.googleusercontent.com/-CcauAr100AM/AAAAAAAAAAI/AAAAAAAAB4Y/x9ayAius0XQ/photo.jpg
p19
sVgender
p20
Vmale
p21
sVid
p22
V110481109288420860126
p23
sVlink
p24
Vhttps://plus.google.com/110481109288420860126
p25
sVgiven_name
p26
VAbhinav
p27
sS'logged_in'
p28
I01
sS'query'
p29
S'Top Keywords'
p30
sVemail
p31
Vabhinavrajaseshan@gmail.com
p32
sVverified_email
p33
I01
ssS'_creation_time'
p34
F1475679715.648
ss.