(dp1
S'session'
p2
(dp3
S'_accessed_time'
p4
F1475798766.4619999
sS'user'
p5
(dp6
Vfamily_name
p7
VRajaseshan
p8
sS'querys'
p9
ccollections
Counter
p10
((dp11
Vkeyqoes
p12
I1
sVtop
p13
I1
sVonly
p14
I1
sV3
I1
stRp15
sVname
p16
VAbhinav Rajaseshan
p17
sVpicture
p18
Vhttps://lh3.googleusercontent.com/-CcauAr100AM/AAAAAAAAAAI/AAAAAAAAB4Y/x9ayAius0XQ/photo.jpg
p19
sVgender
p20
Vmale
p21
sVemail
p22
Vabhinavrajaseshan@gmail.com
p23
sVlink
p24
Vhttps://plus.google.com/110481109288420860126
p25
sVgiven_name
p26
VAbhinav
p27
sS'query'
p28
S'Top Keywords'
p29
sVid
p30
V110481109288420860126
p31
sVverified_email
p32
I01
ssS'_creation_time'
p33
F1475679715.648
ss.