(dp1
S'session'
p2
(dp3
S'test'
p4
I4
sS'_accessed_time'
p5
F1475547065.7
sS'user'
p6
(dp7
Vfamily_name
p8
VRajaseshan
p9
sVname
p10
VAbhinav Rajaseshan
p11
sVpicture
p12
Vhttps://lh3.googleusercontent.com/-CcauAr100AM/AAAAAAAAAAI/AAAAAAAAB4Y/x9ayAius0XQ/photo.jpg
p13
sVgender
p14
Vmale
p15
sVid
p16
V110481109288420860126
p17
sVlink
p18
Vhttps://plus.google.com/110481109288420860126
p19
sVgiven_name
p20
VAbhinav
p21
sVemail
p22
Vabhinavrajaseshan@gmail.com
p23
sVverified_email
p24
I01
ssS'_creation_time'
p25
F1475547054.0639999
ss.